target datalayout = "e-m:e-p270:32:32-p271:32:32-p272:64:64-i64:64-i128:128-f80:128-n8:16:32:64-S128"
target triple = "x86_64-pc-linux-gnu"

%struct.sc_data_s = type { i32, i32, i32, i32, i32, i32, i32, i64, i64, i32, i64, i64, i8, [235 x %struct.sc_s] }
%struct.sc_s = type { i32, i32, i32, i32, i8, i8, i32, i32 }

; Function Attrs: nounwind uwtable
define internal void @sc_data_update_sc_slab_size(ptr noundef %0, i64 noundef %1, i64 noundef %2) #0 {
  %4 = alloca ptr, align 8
  %5 = alloca i64, align 8
  %6 = alloca i64, align 8
  %7 = alloca i64, align 8
  %8 = alloca i64, align 8
  store ptr %0, ptr %4, align 8, !tbaa !16
  store i64 %1, ptr %5, align 8, !tbaa !15
  store i64 %2, ptr %6, align 8, !tbaa !15
  call void @llvm.lifetime.start.p0(i64 8, ptr %7) #5
  %9 = load i64, ptr %5, align 8, !tbaa !15
  %10 = udiv i64 %9, 4096
  store i64 %10, ptr %7, align 8, !tbaa !15
  %11 = load i64, ptr %5, align 8, !tbaa !15
  %12 = urem i64 %11, 4096
  %13 = icmp ne i64 %12, 0
  br i1 %13, label %14, label %17

14:                                               ; preds = %3
  %15 = load i64, ptr %7, align 8, !tbaa !15
  %16 = add i64 %15, 1
  store i64 %16, ptr %7, align 8, !tbaa !15
  br label %17

17:                                               ; preds = %14, %3
  call void @llvm.lifetime.start.p0(i64 8, ptr %8) #5
  %18 = load i64, ptr %5, align 8, !tbaa !15
  %19 = mul i64 512, %18
  %20 = udiv i64 %19, 4096
  store i64 %20, ptr %8, align 8, !tbaa !15
  br label %21

21:                                               ; preds = %17
  br label %22

22:                                               ; preds = %21
  br label %23

23:                                               ; preds = %22
  br label %24

24:                                               ; preds = %23
  br label %25

25:                                               ; preds = %24
  br label %26

26:                                               ; preds = %25
  br label %27

27:                                               ; preds = %26
  br label %28

28:                                               ; preds = %27
  br label %29

29:                                               ; preds = %28
  %30 = load i64, ptr %6, align 8, !tbaa !15
  %31 = load i64, ptr %7, align 8, !tbaa !15
  %32 = icmp ult i64 %30, %31
  br i1 %32, label %33, label %38

33:                                               ; preds = %29
  %34 = load i64, ptr %7, align 8, !tbaa !15
  %35 = trunc i64 %34 to i32
  %36 = load ptr, ptr %4, align 8, !tbaa !16
  %37 = getelementptr inbounds nuw %struct.sc_s, ptr %36, i32 0, i32 6
  store i32 %35, ptr %37, align 4, !tbaa !45
  br label %53

38:                                               ; preds = %29
  %39 = load i64, ptr %6, align 8, !tbaa !15
  %40 = load i64, ptr %8, align 8, !tbaa !15
  %41 = icmp ugt i64 %39, %40
  br i1 %41, label %42, label %47

42:                                               ; preds = %38
  %43 = load i64, ptr %8, align 8, !tbaa !15
  %44 = trunc i64 %43 to i32
  %45 = load ptr, ptr %4, align 8, !tbaa !16
  %46 = getelementptr inbounds nuw %struct.sc_s, ptr %45, i32 0, i32 6
  store i32 %44, ptr %46, align 4, !tbaa !45
  br label %52

47:                                               ; preds = %38
  %48 = load i64, ptr %6, align 8, !tbaa !15
  %49 = trunc i64 %48 to i32
  %50 = load ptr, ptr %4, align 8, !tbaa !16
  %51 = getelementptr inbounds nuw %struct.sc_s, ptr %50, i32 0, i32 6
  store i32 %49, ptr %51, align 4, !tbaa !45
  br label %52

52:                                               ; preds = %47, %42
  br label %53

53:                                               ; preds = %52, %33
  call void @llvm.lifetime.end.p0(i64 8, ptr %8) #5
  call void @llvm.lifetime.end.p0(i64 8, ptr %7) #5
  ret void
}

; Function Attrs: nounwind uwtable
define hidden i64 @je_reg_size_compute(i32 noundef %0, i32 noundef %1, i32 noundef %2) #0 {
  %4 = alloca i32, align 4
  %5 = alloca i32, align 4
  %6 = alloca i32, align 4
  store i32 %0, ptr %4, align 4, !tbaa !4
  store i32 %1, ptr %5, align 4, !tbaa !4
  store i32 %2, ptr %6, align 4, !tbaa !4
  %7 = load i32, ptr %4, align 4, !tbaa !4
  %8 = zext i32 %7 to i64
  %9 = shl i64 1, %8
  %10 = load i32, ptr %6, align 4, !tbaa !4
  %11 = sext i32 %10 to i64
  %12 = load i32, ptr %5, align 4, !tbaa !4
  %13 = zext i32 %12 to i64
  %14 = shl i64 %11, %13
  %15 = add i64 %9, %14
  ret i64 %15
}

; Function Attrs: nounwind uwtable
define hidden void @je_sc_data_update_slab_size(ptr noundef %0, i64 noundef %1, i64 noundef %2, i32 noundef %3) #0 {
  %5 = alloca ptr, align 8
  %6 = alloca i64, align 8
  %7 = alloca i64, align 8
  %8 = alloca i32, align 4
  %9 = alloca i32, align 4
  %10 = alloca i32, align 4
  %11 = alloca ptr, align 8
  %12 = alloca i64, align 8
  store ptr %0, ptr %5, align 8, !tbaa !8
  store i64 %1, ptr %6, align 8, !tbaa !15
  store i64 %2, ptr %7, align 8, !tbaa !15
  store i32 %3, ptr %8, align 4, !tbaa !4
  br label %13

13:                                               ; preds = %4
  br label %14

14:                                               ; preds = %13
  call void @llvm.lifetime.start.p0(i64 4, ptr %9) #5
  store i32 0, ptr %9, align 4, !tbaa !4
  br label %15

15:                                               ; preds = %60, %14
  %16 = load i32, ptr %9, align 4, !tbaa !4
  %17 = load ptr, ptr %5, align 8, !tbaa !8
  %18 = getelementptr inbounds nuw %struct.sc_data_s, ptr %17, i32 0, i32 3
  %19 = load i32, ptr %18, align 4, !tbaa !32
  %20 = icmp slt i32 %16, %19
  br i1 %20, label %22, label %21

21:                                               ; preds = %15
  store i32 4, ptr %10, align 4
  br label %63

22:                                               ; preds = %15
  call void @llvm.lifetime.start.p0(i64 8, ptr %11) #5
  %23 = load ptr, ptr %5, align 8, !tbaa !8
  %24 = getelementptr inbounds nuw %struct.sc_data_s, ptr %23, i32 0, i32 13
  %25 = load i32, ptr %9, align 4, !tbaa !4
  %26 = sext i32 %25 to i64
  %27 = getelementptr inbounds [235 x %struct.sc_s], ptr %24, i64 0, i64 %26
  store ptr %27, ptr %11, align 8, !tbaa !16
  %28 = load ptr, ptr %11, align 8, !tbaa !16
  %29 = getelementptr inbounds nuw %struct.sc_s, ptr %28, i32 0, i32 5
  %30 = load i8, ptr %29, align 1, !tbaa !23, !range !21, !noundef !22
  %31 = trunc i8 %30 to i1
  br i1 %31, label %33, label %32

32:                                               ; preds = %22
  store i32 4, ptr %10, align 4
  br label %57

33:                                               ; preds = %22
  call void @llvm.lifetime.start.p0(i64 8, ptr %12) #5
  %34 = load ptr, ptr %11, align 8, !tbaa !16
  %35 = getelementptr inbounds nuw %struct.sc_s, ptr %34, i32 0, i32 1
  %36 = load i32, ptr %35, align 4, !tbaa !41
  %37 = load ptr, ptr %11, align 8, !tbaa !16
  %38 = getelementptr inbounds nuw %struct.sc_s, ptr %37, i32 0, i32 2
  %39 = load i32, ptr %38, align 4, !tbaa !42
  %40 = load ptr, ptr %11, align 8, !tbaa !16
  %41 = getelementptr inbounds nuw %struct.sc_s, ptr %40, i32 0, i32 3
  %42 = load i32, ptr %41, align 4, !tbaa !43
  %43 = call i64 @je_reg_size_compute(i32 noundef %36, i32 noundef %39, i32 noundef %42)
  store i64 %43, ptr %12, align 8, !tbaa !15
  %44 = load i64, ptr %6, align 8, !tbaa !15
  %45 = load i64, ptr %12, align 8, !tbaa !15
  %46 = icmp ule i64 %44, %45
  br i1 %46, label %47, label %56

47:                                               ; preds = %33
  %48 = load i64, ptr %12, align 8, !tbaa !15
  %49 = load i64, ptr %7, align 8, !tbaa !15
  %50 = icmp ule i64 %48, %49
  br i1 %50, label %51, label %56

51:                                               ; preds = %47
  %52 = load ptr, ptr %11, align 8, !tbaa !16
  %53 = load i64, ptr %12, align 8, !tbaa !15
  %54 = load i32, ptr %8, align 4, !tbaa !4
  %55 = sext i32 %54 to i64
  call void @sc_data_update_sc_slab_size(ptr noundef %52, i64 noundef %53, i64 noundef %55)
  br label %56

56:                                               ; preds = %51, %47, %33
  call void @llvm.lifetime.end.p0(i64 8, ptr %12) #5
  store i32 0, ptr %10, align 4
  br label %57

57:                                               ; preds = %56, %32
  call void @llvm.lifetime.end.p0(i64 8, ptr %11) #5
  %58 = load i32, ptr %10, align 4
  switch i32 %58, label %63 [
    i32 0, label %59
  ]

59:                                               ; preds = %57
  br label %60

60:                                               ; preds = %59
  %61 = load i32, ptr %9, align 4, !tbaa !4
  %62 = add nsw i32 %61, 1
  store i32 %62, ptr %9, align 4, !tbaa !4
  br label %15, !llvm.loop !44

63:                                               ; preds = %57, %21
  call void @llvm.lifetime.end.p0(i64 4, ptr %9) #5
  br label %64

64:                                               ; preds = %63
  ret void
}